; Function Attrs: nounwind uwtable
define hidden i32 @EVP_AEAD_CTX_init_with_direction(ptr noundef initializes((0, 8)) %0, ptr noundef %1, ptr noundef %2, i64 noundef %3, i64 noundef %4, i32 noundef %5) local_unnamed_addr #3 {
  %7 = load i8, ptr %1, align 8, !tbaa !6
  %8 = zext i8 %7 to i64
  %.not = icmp eq i64 %3, %8
  br i1 %.not, label %10, label %9

9:                                                ; preds = %6
  tail call void @ERR_put_error(i32 noundef 30, i32 noundef 0, i32 noundef 120, ptr noundef nonnull @.str, i32 noundef 54) #5
  br label %.sink.split

10:                                               ; preds = %6
  store ptr %1, ptr %0, align 8, !tbaa !15
  %11 = getelementptr inbounds nuw i8, ptr %1, i64 8
  %12 = load ptr, ptr %11, align 8, !tbaa !14
  %.not23 = icmp eq ptr %12, null
  br i1 %.not23, label %15, label %13

13:                                               ; preds = %10
  %14 = tail call i32 %12(ptr noundef nonnull %0, ptr noundef %2, i64 noundef %3, i64 noundef %4) #5
  br label %19

15:                                               ; preds = %10
  %16 = getelementptr inbounds nuw i8, ptr %1, i64 16
  %17 = load ptr, ptr %16, align 8, !tbaa !18
  %18 = tail call i32 %17(ptr noundef nonnull %0, ptr noundef %2, i64 noundef %3, i64 noundef %4, i32 noundef %5) #5
  br label %19

19:                                               ; preds = %15, %13
  %.0 = phi i32 [ %14, %13 ], [ %18, %15 ]
  %.not24 = icmp eq i32 %.0, 0
  br i1 %.not24, label %.sink.split, label %20

.sink.split:                                      ; preds = %19, %9
  store ptr null, ptr %0, align 8, !tbaa !15
  br label %20

20:                                               ; preds = %.sink.split, %19
  %.020 = phi i32 [ %.0, %19 ], [ 0, %.sink.split ]
  ret i32 %.020
}